target datalayout = "e-m:e-p270:32:32-p271:32:32-p272:64:64-i64:64-i128:128-f80:128-n8:16:32:64-S128"
target triple = "x86_64-pc-linux-gnu"

%struct.PayloadContext = type { i32, i32, i32, i32 }

@.str.4 = private unnamed_addr constant [1 x i8] zeroinitializer, align 1
@.str.5 = private unnamed_addr constant [51 x i8] c"AMR fmtp attribute %s had nonstandard empty value\0A\00", align 1
@.str.6 = private unnamed_addr constant [2 x i8] c"1\00", align 1
@.str.7 = private unnamed_addr constant [12 x i8] c"octet-align\00", align 1
@.str.8 = private unnamed_addr constant [4 x i8] c"crc\00", align 1
@.str.9 = private unnamed_addr constant [13 x i8] c"interleaving\00", align 1
@.str.10 = private unnamed_addr constant [9 x i8] c"channels\00", align 1

; Function Attrs: inlinehint nounwind willreturn memory(read) uwtable
define available_externally i32 @atoi(ptr noundef nonnull %0) #5 {
  %2 = alloca ptr, align 8
  store ptr %0, ptr %2, align 8, !tbaa !15
  %3 = load ptr, ptr %2, align 8, !tbaa !15
  %4 = call i64 @strtol(ptr noundef %3, ptr noundef null, i32 noundef 10) #9
  %5 = trunc i64 %4 to i32
  ret i32 %5
}

; Function Attrs: nounwind uwtable
define internal i32 @amr_parse_fmtp(ptr noundef %0, ptr noundef %1, ptr noundef %2, ptr noundef %3, ptr noundef %4) #1 {
  %6 = alloca ptr, align 8
  %7 = alloca ptr, align 8
  %8 = alloca ptr, align 8
  %9 = alloca ptr, align 8
  %10 = alloca ptr, align 8
  store ptr %0, ptr %6, align 8, !tbaa !4
  store ptr %1, ptr %7, align 8, !tbaa !32
  store ptr %2, ptr %8, align 8, !tbaa !11
  store ptr %3, ptr %9, align 8, !tbaa !15
  store ptr %4, ptr %10, align 8, !tbaa !15
  %11 = load ptr, ptr %10, align 8, !tbaa !15
  %12 = call i32 @strcmp(ptr noundef %11, ptr noundef @.str.4) #10
  %13 = icmp ne i32 %12, 0
  br i1 %13, label %17, label %14

14:                                               ; preds = %5
  %15 = load ptr, ptr %6, align 8, !tbaa !4
  %16 = load ptr, ptr %9, align 8, !tbaa !15
  call void (ptr, i32, ptr, ...) @av_log(ptr noundef %15, i32 noundef 24, ptr noundef @.str.5, ptr noundef %16)
  store ptr @.str.6, ptr %10, align 8, !tbaa !15
  br label %17

17:                                               ; preds = %14, %5
  %18 = load ptr, ptr %9, align 8, !tbaa !15
  %19 = call i32 @strcmp(ptr noundef %18, ptr noundef @.str.7) #10
  %20 = icmp ne i32 %19, 0
  br i1 %20, label %26, label %21

21:                                               ; preds = %17
  %22 = load ptr, ptr %10, align 8, !tbaa !15
  %23 = call i32 @atoi(ptr noundef %22) #10
  %24 = load ptr, ptr %8, align 8, !tbaa !11
  %25 = getelementptr inbounds nuw %struct.PayloadContext, ptr %24, i32 0, i32 0
  store i32 %23, ptr %25, align 4, !tbaa !34
  br label %56

26:                                               ; preds = %17
  %27 = load ptr, ptr %9, align 8, !tbaa !15
  %28 = call i32 @strcmp(ptr noundef %27, ptr noundef @.str.8) #10
  %29 = icmp ne i32 %28, 0
  br i1 %29, label %35, label %30

30:                                               ; preds = %26
  %31 = load ptr, ptr %10, align 8, !tbaa !15
  %32 = call i32 @atoi(ptr noundef %31) #10
  %33 = load ptr, ptr %8, align 8, !tbaa !11
  %34 = getelementptr inbounds nuw %struct.PayloadContext, ptr %33, i32 0, i32 1
  store i32 %32, ptr %34, align 4, !tbaa !35
  br label %55

35:                                               ; preds = %26
  %36 = load ptr, ptr %9, align 8, !tbaa !15
  %37 = call i32 @strcmp(ptr noundef %36, ptr noundef @.str.9) #10
  %38 = icmp ne i32 %37, 0
  br i1 %38, label %44, label %39

39:                                               ; preds = %35
  %40 = load ptr, ptr %10, align 8, !tbaa !15
  %41 = call i32 @atoi(ptr noundef %40) #10
  %42 = load ptr, ptr %8, align 8, !tbaa !11
  %43 = getelementptr inbounds nuw %struct.PayloadContext, ptr %42, i32 0, i32 2
  store i32 %41, ptr %43, align 4, !tbaa !36
  br label %54

44:                                               ; preds = %35
  %45 = load ptr, ptr %9, align 8, !tbaa !15
  %46 = call i32 @strcmp(ptr noundef %45, ptr noundef @.str.10) #10
  %47 = icmp ne i32 %46, 0
  br i1 %47, label %53, label %48

48:                                               ; preds = %44
  %49 = load ptr, ptr %10, align 8, !tbaa !15
  %50 = call i32 @atoi(ptr noundef %49) #10
  %51 = load ptr, ptr %8, align 8, !tbaa !11
  %52 = getelementptr inbounds nuw %struct.PayloadContext, ptr %51, i32 0, i32 3
  store i32 %50, ptr %52, align 4, !tbaa !13
  br label %53

53:                                               ; preds = %48, %44
  br label %54

54:                                               ; preds = %53, %39
  br label %55

55:                                               ; preds = %54, %30
  br label %56

56:                                               ; preds = %55, %21
  ret i32 0
}