; Function Attrs: nounwind uwtable
define internal noundef i32 @amr_parse_fmtp(ptr noundef %0, ptr readnone captures(none) %1, ptr noundef writeonly captures(none) %2, ptr noundef %3, ptr noundef readonly captures(none) %4) #1 {
  %strcmpload = load i8, ptr %4, align 1
  %.not = icmp eq i8 %strcmpload, 0
  br i1 %.not, label %6, label %7

6:                                                ; preds = %5
  tail call void (ptr, i32, ptr, ...) @av_log(ptr noundef %0, i32 noundef 24, ptr noundef nonnull @.str.5, ptr noundef %3) #9
  br label %7

7:                                                ; preds = %6, %5
  %.0 = phi ptr [ %4, %5 ], [ @.str.6, %6 ]
  %8 = tail call i32 @strcmp(ptr noundef nonnull dereferenceable(1) %3, ptr noundef nonnull dereferenceable(12) @.str.7) #10
  %.not15 = icmp eq i32 %8, 0
  br i1 %.not15, label %9, label %12

9:                                                ; preds = %7
  %10 = tail call i64 @strtol(ptr noundef nonnull captures(none) %.0, ptr noundef null, i32 noundef 10) #9
  %11 = trunc i64 %10 to i32
  store i32 %11, ptr %2, align 4, !tbaa !29
  br label %30

12:                                               ; preds = %7
  %13 = tail call i32 @strcmp(ptr noundef nonnull dereferenceable(1) %3, ptr noundef nonnull dereferenceable(4) @.str.8) #10
  %.not16 = icmp eq i32 %13, 0
  br i1 %.not16, label %14, label %18

14:                                               ; preds = %12
  %15 = tail call i64 @strtol(ptr noundef nonnull captures(none) %.0, ptr noundef null, i32 noundef 10) #9
  %16 = trunc i64 %15 to i32
  %17 = getelementptr inbounds nuw i8, ptr %2, i64 4
  store i32 %16, ptr %17, align 4, !tbaa !30
  br label %30

18:                                               ; preds = %12
  %19 = tail call i32 @strcmp(ptr noundef nonnull dereferenceable(1) %3, ptr noundef nonnull dereferenceable(13) @.str.9) #10
  %.not17 = icmp eq i32 %19, 0
  br i1 %.not17, label %20, label %24

20:                                               ; preds = %18
  %21 = tail call i64 @strtol(ptr noundef nonnull captures(none) %.0, ptr noundef null, i32 noundef 10) #9
  %22 = trunc i64 %21 to i32
  %23 = getelementptr inbounds nuw i8, ptr %2, i64 8
  store i32 %22, ptr %23, align 4, !tbaa !31
  br label %30

24:                                               ; preds = %18
  %25 = tail call i32 @strcmp(ptr noundef nonnull dereferenceable(1) %3, ptr noundef nonnull dereferenceable(9) @.str.10) #10
  %.not18 = icmp eq i32 %25, 0
  br i1 %.not18, label %26, label %30

26:                                               ; preds = %24
  %27 = tail call i64 @strtol(ptr noundef nonnull captures(none) %.0, ptr noundef null, i32 noundef 10) #9
  %28 = trunc i64 %27 to i32
  %29 = getelementptr inbounds nuw i8, ptr %2, i64 12
  store i32 %28, ptr %29, align 4, !tbaa !4
  br label %30

30:                                               ; preds = %14, %24, %26, %20, %9
  ret i32 0
}